; Function Attrs: mustprogress nounwind uwtable
define internal noundef i64 @_ZNK12_GLOBAL__N_111GOFFOstream11current_posEv(ptr nocapture noundef nonnull readonly align 8 dereferenceable(147) %0) unnamed_addr #0 align 2 {
  %2 = getelementptr inbounds nuw i8, ptr %0, i64 48
  %3 = load ptr, ptr %2, align 8
  %4 = load ptr, ptr %3, align 8
  %5 = getelementptr inbounds i8, ptr %4, i64 80
  %6 = load ptr, ptr %5, align 8
  %7 = tail call noundef i64 %6(ptr noundef nonnull align 8 dereferenceable(48) %3) #10
  %8 = getelementptr inbounds nuw i8, ptr %3, i64 32
  %9 = load ptr, ptr %8, align 8
  %10 = getelementptr inbounds nuw i8, ptr %3, i64 16
  %11 = load ptr, ptr %10, align 8
  %12 = ptrtoint ptr %9 to i64
  %13 = ptrtoint ptr %11 to i64
  %14 = add i64 %7, %12
  %15 = sub i64 %14, %13
  ret i64 %15
}